target datalayout = "e-m:e-p270:32:32-p271:32:32-p272:64:64-i64:64-i128:128-f80:128-n8:16:32:64-S128"
target triple = "x86_64-pc-linux-gnu"

%struct.Gia_Man_t_ = type { ptr, ptr, i32, i32, i32, i32, ptr, ptr, i32, i32, i32, ptr, ptr, %struct.Vec_Int_t_, %struct.Vec_Int_t_, i32, i32, i32, %struct.Vec_Int_t_, ptr, ptr, ptr, i32, i32, i32, i32, ptr, ptr, ptr, ptr, ptr, i32, i32, ptr, i32, ptr, ptr, ptr, ptr, ptr, ptr, ptr, ptr, ptr, ptr, ptr, ptr, ptr, ptr, ptr, ptr, ptr, ptr, %struct.Vec_Int_t_, %struct.Vec_Int_t_, ptr, ptr, ptr, ptr, ptr, ptr, ptr, ptr, ptr, ptr, ptr, ptr, ptr, ptr, ptr, ptr, ptr, ptr, ptr, ptr, ptr, i32, float, float, ptr, ptr, i32, ptr, ptr, ptr, ptr, ptr, ptr, ptr, ptr, ptr, ptr, ptr, ptr, ptr, ptr, ptr, i64, i64, ptr, ptr, i32, i32, i32, i32, i32, i32, i32, i32, i32, i32, i32, i32, ptr, ptr, ptr, ptr, ptr, ptr, ptr, ptr, i32, i32, i32, ptr, i32, i32, ptr, ptr, ptr, ptr, ptr, ptr, i32, i32, ptr, %struct.Vec_Int_t_, %struct.Vec_Int_t_, %struct.Vec_Int_t_, ptr, ptr, ptr }
%struct.Vec_Int_t_ = type { i32, i32, ptr }
%struct.Gia_Obj_t_ = type <{ i64, i32 }>

; Function Attrs: nounwind uwtable
define internal i32 @Vec_IntEntry(ptr noundef %0, i32 noundef %1) #0 {
  %3 = alloca ptr, align 8
  %4 = alloca i32, align 4
  store ptr %0, ptr %3, align 8
  store i32 %1, ptr %4, align 4
  %5 = load ptr, ptr %3, align 8
  %6 = getelementptr inbounds %struct.Vec_Int_t_, ptr %5, i32 0, i32 2
  %7 = load ptr, ptr %6, align 8
  %8 = load i32, ptr %4, align 4
  %9 = sext i32 %8 to i64
  %10 = getelementptr inbounds i32, ptr %7, i64 %9
  %11 = load i32, ptr %10, align 4
  ret i32 %11
}

; Function Attrs: nounwind uwtable
define internal ptr @Gia_ManCo(ptr noundef %0, i32 noundef %1) #0 {
  %3 = alloca ptr, align 8
  %4 = alloca i32, align 4
  store ptr %0, ptr %3, align 8
  store i32 %1, ptr %4, align 4
  %5 = load ptr, ptr %3, align 8
  %6 = load ptr, ptr %3, align 8
  %7 = getelementptr inbounds %struct.Gia_Man_t_, ptr %6, i32 0, i32 12
  %8 = load ptr, ptr %7, align 8
  %9 = load i32, ptr %4, align 4
  %10 = call i32 @Vec_IntEntry(ptr noundef %8, i32 noundef %9)
  %11 = call ptr @Gia_ManObj(ptr noundef %5, i32 noundef %10)
  ret ptr %11
}

; Function Attrs: nounwind uwtable
define internal ptr @Gia_ObjFanin1(ptr noundef %0) #0 {
  %2 = alloca ptr, align 8
  store ptr %0, ptr %2, align 8
  %3 = load ptr, ptr %2, align 8
  %4 = load ptr, ptr %2, align 8
  %5 = load i64, ptr %4, align 4
  %6 = lshr i64 %5, 32
  %7 = and i64 %6, 536870911
  %8 = trunc i64 %7 to i32
  %9 = sext i32 %8 to i64
  %10 = sub i64 0, %9
  %11 = getelementptr inbounds %struct.Gia_Obj_t_, ptr %3, i64 %10
  ret ptr %11
}

; Function Attrs: nounwind uwtable
define internal ptr @Gia_ObjFanin0(ptr noundef %0) #0 {
  %2 = alloca ptr, align 8
  store ptr %0, ptr %2, align 8
  %3 = load ptr, ptr %2, align 8
  %4 = load ptr, ptr %2, align 8
  %5 = load i64, ptr %4, align 4
  %6 = and i64 %5, 536870911
  %7 = trunc i64 %6 to i32
  %8 = sext i32 %7 to i64
  %9 = sub i64 0, %8
  %10 = getelementptr inbounds %struct.Gia_Obj_t_, ptr %3, i64 %9
  ret ptr %10
}

; Function Attrs: nounwind uwtable
define internal i32 @Gia_ObjIsAnd(ptr noundef %0) #0 {
  %2 = alloca ptr, align 8
  store ptr %0, ptr %2, align 8
  %3 = load ptr, ptr %2, align 8
  %4 = load i64, ptr %3, align 4
  %5 = lshr i64 %4, 31
  %6 = and i64 %5, 1
  %7 = trunc i64 %6 to i32
  %8 = icmp ne i32 %7, 0
  br i1 %8, label %15, label %9

9:                                                ; preds = %1
  %10 = load ptr, ptr %2, align 8
  %11 = load i64, ptr %10, align 4
  %12 = and i64 %11, 536870911
  %13 = trunc i64 %12 to i32
  %14 = icmp ne i32 %13, 536870911
  br label %15

15:                                               ; preds = %9, %1
  %16 = phi i1 [ false, %1 ], [ %14, %9 ]
  %17 = zext i1 %16 to i32
  ret i32 %17
}

; Function Attrs: nounwind uwtable
define internal ptr @Gia_ManObj(ptr noundef %0, i32 noundef %1) #0 {
  %3 = alloca ptr, align 8
  %4 = alloca i32, align 4
  store ptr %0, ptr %3, align 8
  store i32 %1, ptr %4, align 4
  %5 = load ptr, ptr %3, align 8
  %6 = getelementptr inbounds %struct.Gia_Man_t_, ptr %5, i32 0, i32 6
  %7 = load ptr, ptr %6, align 8
  %8 = load i32, ptr %4, align 4
  %9 = sext i32 %8 to i64
  %10 = getelementptr inbounds %struct.Gia_Obj_t_, ptr %7, i64 %9
  ret ptr %10
}

; Function Attrs: nounwind uwtable
define internal ptr @Gia_ManCi(ptr noundef %0, i32 noundef %1) #0 {
  %3 = alloca ptr, align 8
  %4 = alloca i32, align 4
  store ptr %0, ptr %3, align 8
  store i32 %1, ptr %4, align 4
  %5 = load ptr, ptr %3, align 8
  %6 = load ptr, ptr %3, align 8
  %7 = getelementptr inbounds %struct.Gia_Man_t_, ptr %6, i32 0, i32 11
  %8 = load ptr, ptr %7, align 8
  %9 = load i32, ptr %4, align 4
  %10 = call i32 @Vec_IntEntry(ptr noundef %8, i32 noundef %9)
  %11 = call ptr @Gia_ManObj(ptr noundef %5, i32 noundef %10)
  ret ptr %11
}

; Function Attrs: nounwind uwtable
define internal i32 @Vec_IntSize(ptr noundef %0) #0 {
  %2 = alloca ptr, align 8
  store ptr %0, ptr %2, align 8
  %3 = load ptr, ptr %2, align 8
  %4 = getelementptr inbounds %struct.Vec_Int_t_, ptr %3, i32 0, i32 1
  %5 = load i32, ptr %4, align 4
  ret i32 %5
}

; Function Attrs: nounwind uwtable
define i32 @Gia_ManCountPisWithFanout(ptr noundef %0) #0 {
  %2 = alloca ptr, align 8
  %3 = alloca ptr, align 8
  %4 = alloca i32, align 4
  %5 = alloca i32, align 4
  store ptr %0, ptr %2, align 8
  store i32 0, ptr %5, align 4
  store i32 0, ptr %4, align 4
  br label %6

6:                                                ; preds = %25, %1
  %7 = load i32, ptr %4, align 4
  %8 = load ptr, ptr %2, align 8
  %9 = getelementptr inbounds %struct.Gia_Man_t_, ptr %8, i32 0, i32 11
  %10 = load ptr, ptr %9, align 8
  %11 = call i32 @Vec_IntSize(ptr noundef %10)
  %12 = icmp slt i32 %7, %11
  br i1 %12, label %13, label %18

13:                                               ; preds = %6
  %14 = load ptr, ptr %2, align 8
  %15 = load i32, ptr %4, align 4
  %16 = call ptr @Gia_ManCi(ptr noundef %14, i32 noundef %15)
  store ptr %16, ptr %3, align 8
  %17 = icmp ne ptr %16, null
  br label %18

18:                                               ; preds = %13, %6
  %19 = phi i1 [ false, %6 ], [ %17, %13 ]
  br i1 %19, label %20, label %28

20:                                               ; preds = %18
  %21 = load ptr, ptr %3, align 8
  %22 = load i64, ptr %21, align 4
  %23 = and i64 %22, -1073741825
  %24 = or i64 %23, 0
  store i64 %24, ptr %21, align 4
  br label %25

25:                                               ; preds = %20
  %26 = load i32, ptr %4, align 4
  %27 = add nsw i32 %26, 1
  store i32 %27, ptr %4, align 4
  br label %6, !llvm.loop !93

28:                                               ; preds = %18
  store i32 0, ptr %4, align 4
  br label %29

29:                                               ; preds = %59, %28
  %30 = load i32, ptr %4, align 4
  %31 = load ptr, ptr %2, align 8
  %32 = getelementptr inbounds %struct.Gia_Man_t_, ptr %31, i32 0, i32 4
  %33 = load i32, ptr %32, align 8
  %34 = icmp slt i32 %30, %33
  br i1 %34, label %35, label %40

35:                                               ; preds = %29
  %36 = load ptr, ptr %2, align 8
  %37 = load i32, ptr %4, align 4
  %38 = call ptr @Gia_ManObj(ptr noundef %36, i32 noundef %37)
  store ptr %38, ptr %3, align 8
  %39 = icmp ne ptr %38, null
  br label %40

40:                                               ; preds = %35, %29
  %41 = phi i1 [ false, %29 ], [ %39, %35 ]
  br i1 %41, label %42, label %62

42:                                               ; preds = %40
  %43 = load ptr, ptr %3, align 8
  %44 = call i32 @Gia_ObjIsAnd(ptr noundef %43)
  %45 = icmp ne i32 %44, 0
  br i1 %45, label %47, label %46

46:                                               ; preds = %42
  br label %58

47:                                               ; preds = %42
  %48 = load ptr, ptr %3, align 8
  %49 = call ptr @Gia_ObjFanin0(ptr noundef %48)
  %50 = load i64, ptr %49, align 4
  %51 = and i64 %50, -1073741825
  %52 = or i64 %51, 1073741824
  store i64 %52, ptr %49, align 4
  %53 = load ptr, ptr %3, align 8
  %54 = call ptr @Gia_ObjFanin1(ptr noundef %53)
  %55 = load i64, ptr %54, align 4
  %56 = and i64 %55, -1073741825
  %57 = or i64 %56, 1073741824
  store i64 %57, ptr %54, align 4
  br label %58

58:                                               ; preds = %47, %46
  br label %59

59:                                               ; preds = %58
  %60 = load i32, ptr %4, align 4
  %61 = add nsw i32 %60, 1
  store i32 %61, ptr %4, align 4
  br label %29, !llvm.loop !94

62:                                               ; preds = %40
  store i32 0, ptr %4, align 4
  br label %63

63:                                               ; preds = %83, %62
  %64 = load i32, ptr %4, align 4
  %65 = load ptr, ptr %2, align 8
  %66 = getelementptr inbounds %struct.Gia_Man_t_, ptr %65, i32 0, i32 12
  %67 = load ptr, ptr %66, align 8
  %68 = call i32 @Vec_IntSize(ptr noundef %67)
  %69 = icmp slt i32 %64, %68
  br i1 %69, label %70, label %75

70:                                               ; preds = %63
  %71 = load ptr, ptr %2, align 8
  %72 = load i32, ptr %4, align 4
  %73 = call ptr @Gia_ManCo(ptr noundef %71, i32 noundef %72)
  store ptr %73, ptr %3, align 8
  %74 = icmp ne ptr %73, null
  br label %75

75:                                               ; preds = %70, %63
  %76 = phi i1 [ false, %63 ], [ %74, %70 ]
  br i1 %76, label %77, label %86

77:                                               ; preds = %75
  %78 = load ptr, ptr %3, align 8
  %79 = call ptr @Gia_ObjFanin0(ptr noundef %78)
  %80 = load i64, ptr %79, align 4
  %81 = and i64 %80, -1073741825
  %82 = or i64 %81, 1073741824
  store i64 %82, ptr %79, align 4
  br label %83

83:                                               ; preds = %77
  %84 = load i32, ptr %4, align 4
  %85 = add nsw i32 %84, 1
  store i32 %85, ptr %4, align 4
  br label %63, !llvm.loop !95

86:                                               ; preds = %75
  store i32 0, ptr %4, align 4
  br label %87

87:                                               ; preds = %109, %86
  %88 = load i32, ptr %4, align 4
  %89 = load ptr, ptr %2, align 8
  %90 = getelementptr inbounds %struct.Gia_Man_t_, ptr %89, i32 0, i32 11
  %91 = load ptr, ptr %90, align 8
  %92 = call i32 @Vec_IntSize(ptr noundef %91)
  %93 = icmp slt i32 %88, %92
  br i1 %93, label %94, label %99

94:                                               ; preds = %87
  %95 = load ptr, ptr %2, align 8
  %96 = load i32, ptr %4, align 4
  %97 = call ptr @Gia_ManCi(ptr noundef %95, i32 noundef %96)
  store ptr %97, ptr %3, align 8
  %98 = icmp ne ptr %97, null
  br label %99

99:                                               ; preds = %94, %87
  %100 = phi i1 [ false, %87 ], [ %98, %94 ]
  br i1 %100, label %101, label %112

101:                                              ; preds = %99
  %102 = load ptr, ptr %3, align 8
  %103 = load i64, ptr %102, align 4
  %104 = lshr i64 %103, 30
  %105 = and i64 %104, 1
  %106 = trunc i64 %105 to i32
  %107 = load i32, ptr %5, align 4
  %108 = add nsw i32 %107, %106
  store i32 %108, ptr %5, align 4
  br label %109

109:                                              ; preds = %101
  %110 = load i32, ptr %4, align 4
  %111 = add nsw i32 %110, 1
  store i32 %111, ptr %4, align 4
  br label %87, !llvm.loop !96

112:                                              ; preds = %99
  store i32 0, ptr %4, align 4
  br label %113

113:                                              ; preds = %131, %112
  %114 = load i32, ptr %4, align 4
  %115 = load ptr, ptr %2, align 8
  %116 = getelementptr inbounds %struct.Gia_Man_t_, ptr %115, i32 0, i32 4
  %117 = load i32, ptr %116, align 8
  %118 = icmp slt i32 %114, %117
  br i1 %118, label %119, label %124

119:                                              ; preds = %113
  %120 = load ptr, ptr %2, align 8
  %121 = load i32, ptr %4, align 4
  %122 = call ptr @Gia_ManObj(ptr noundef %120, i32 noundef %121)
  store ptr %122, ptr %3, align 8
  %123 = icmp ne ptr %122, null
  br label %124

124:                                              ; preds = %119, %113
  %125 = phi i1 [ false, %113 ], [ %123, %119 ]
  br i1 %125, label %126, label %134

126:                                              ; preds = %124
  %127 = load ptr, ptr %3, align 8
  %128 = load i64, ptr %127, align 4
  %129 = and i64 %128, -1073741825
  %130 = or i64 %129, 0
  store i64 %130, ptr %127, align 4
  br label %131

131:                                              ; preds = %126
  %132 = load i32, ptr %4, align 4
  %133 = add nsw i32 %132, 1
  store i32 %133, ptr %4, align 4
  br label %113, !llvm.loop !97

134:                                              ; preds = %124
  %135 = load i32, ptr %5, align 4
  ret i32 %135
}