; Function Attrs: nofree norecurse nosync nounwind memory(readwrite, inaccessiblemem: none) uwtable
define i32 @Gia_ManCountPisWithFanout(ptr noundef readonly captures(none) %0) local_unnamed_addr #1 {
  %2 = getelementptr i8, ptr %0, i64 32
  %3 = getelementptr inbounds nuw i8, ptr %0, i64 64
  %4 = load ptr, ptr %3, align 8
  %5 = getelementptr i8, ptr %4, i64 4
  %.val5665 = load i32, ptr %5, align 4
  %6 = icmp sgt i32 %.val5665, 0
  br i1 %6, label %.lr.ph, label %.critedge

.lr.ph:                                           ; preds = %1, %8
  %indvars.iv = phi i64 [ %indvars.iv.next, %8 ], [ 0, %1 ]
  %7 = phi ptr [ %16, %8 ], [ %4, %1 ]
  %.val59 = load ptr, ptr %2, align 8
  %.not = icmp eq ptr %.val59, null
  br i1 %.not, label %.critedge, label %8

8:                                                ; preds = %.lr.ph
  %9 = getelementptr i8, ptr %7, i64 8
  %.val60.val = load ptr, ptr %9, align 8
  %10 = getelementptr inbounds nuw i32, ptr %.val60.val, i64 %indvars.iv
  %11 = load i32, ptr %10, align 4
  %12 = sext i32 %11 to i64
  %13 = getelementptr inbounds %struct.Gia_Obj_t_, ptr %.val59, i64 %12
  %14 = load i64, ptr %13, align 4
  %15 = and i64 %14, -1073741825
  store i64 %15, ptr %13, align 4
  %indvars.iv.next = add nuw nsw i64 %indvars.iv, 1
  %16 = load ptr, ptr %3, align 8
  %17 = getelementptr i8, ptr %16, i64 4
  %.val56 = load i32, ptr %17, align 4
  %18 = sext i32 %.val56 to i64
  %19 = icmp slt i64 %indvars.iv.next, %18
  br i1 %19, label %.lr.ph, label %.critedge, !llvm.loop !91

.critedge:                                        ; preds = %.lr.ph, %8, %1
  %20 = getelementptr inbounds nuw i8, ptr %0, i64 24
  %21 = load i32, ptr %20, align 8
  %22 = icmp sgt i32 %21, 0
  br i1 %22, label %.lr.ph69, label %.critedge2

.lr.ph69:                                         ; preds = %.critedge, %41
  %23 = phi i32 [ %42, %41 ], [ %21, %.critedge ]
  %indvars.iv84 = phi i64 [ %indvars.iv.next85, %41 ], [ 0, %.critedge ]
  %.val52 = load ptr, ptr %2, align 8
  %24 = getelementptr inbounds nuw %struct.Gia_Obj_t_, ptr %.val52, i64 %indvars.iv84
  %.not47 = icmp eq ptr %.val52, null
  br i1 %.not47, label %.critedge2, label %25

25:                                               ; preds = %.lr.ph69
  %.val53 = load i64, ptr %24, align 4
  %26 = and i64 %.val53, 2147483648
  %.not.i = icmp ne i64 %26, 0
  %27 = and i64 %.val53, 536870911
  %28 = icmp eq i64 %27, 536870911
  %narrow.i.not = or i1 %.not.i, %28
  br i1 %narrow.i.not, label %41, label %29

29:                                               ; preds = %25
  %30 = sub nsw i64 0, %27
  %31 = getelementptr inbounds %struct.Gia_Obj_t_, ptr %24, i64 %30
  %32 = load i64, ptr %31, align 4
  %33 = or i64 %32, 1073741824
  store i64 %33, ptr %31, align 4
  %34 = load i64, ptr %24, align 4
  %35 = lshr i64 %34, 32
  %36 = and i64 %35, 536870911
  %37 = sub nsw i64 0, %36
  %38 = getelementptr inbounds %struct.Gia_Obj_t_, ptr %24, i64 %37
  %39 = load i64, ptr %38, align 4
  %40 = or i64 %39, 1073741824
  store i64 %40, ptr %38, align 4
  %.pre = load i32, ptr %20, align 8
  br label %41

41:                                               ; preds = %29, %25
  %42 = phi i32 [ %.pre, %29 ], [ %23, %25 ]
  %indvars.iv.next85 = add nuw nsw i64 %indvars.iv84, 1
  %43 = sext i32 %42 to i64
  %44 = icmp slt i64 %indvars.iv.next85, %43
  br i1 %44, label %.lr.ph69, label %.critedge2, !llvm.loop !92

.critedge2:                                       ; preds = %.lr.ph69, %41, %.critedge
  %45 = getelementptr inbounds nuw i8, ptr %0, i64 72
  %46 = load ptr, ptr %45, align 8
  %47 = getelementptr i8, ptr %46, i64 4
  %.val5571 = load i32, ptr %47, align 4
  %48 = icmp sgt i32 %.val5571, 0
  br i1 %48, label %.lr.ph73, label %.critedge4

.lr.ph73:                                         ; preds = %.critedge2, %50
  %indvars.iv87 = phi i64 [ %indvars.iv.next88, %50 ], [ 0, %.critedge2 ]
  %49 = phi ptr [ %62, %50 ], [ %46, %.critedge2 ]
  %.val61 = load ptr, ptr %2, align 8
  %.not48 = icmp eq ptr %.val61, null
  br i1 %.not48, label %.critedge4, label %50

50:                                               ; preds = %.lr.ph73
  %51 = getelementptr i8, ptr %49, i64 8
  %.val62.val = load ptr, ptr %51, align 8
  %52 = getelementptr inbounds nuw i32, ptr %.val62.val, i64 %indvars.iv87
  %53 = load i32, ptr %52, align 4
  %54 = sext i32 %53 to i64
  %55 = getelementptr inbounds %struct.Gia_Obj_t_, ptr %.val61, i64 %54
  %56 = load i64, ptr %55, align 4
  %57 = and i64 %56, 536870911
  %58 = sub nsw i64 0, %57
  %59 = getelementptr inbounds %struct.Gia_Obj_t_, ptr %55, i64 %58
  %60 = load i64, ptr %59, align 4
  %61 = or i64 %60, 1073741824
  store i64 %61, ptr %59, align 4
  %indvars.iv.next88 = add nuw nsw i64 %indvars.iv87, 1
  %62 = load ptr, ptr %45, align 8
  %63 = getelementptr i8, ptr %62, i64 4
  %.val55 = load i32, ptr %63, align 4
  %64 = sext i32 %.val55 to i64
  %65 = icmp slt i64 %indvars.iv.next88, %64
  br i1 %65, label %.lr.ph73, label %.critedge4, !llvm.loop !93

.critedge4:                                       ; preds = %.lr.ph73, %50, %.critedge2
  %66 = load ptr, ptr %3, align 8
  %67 = getelementptr i8, ptr %66, i64 4
  %.val54 = load i32, ptr %67, align 4
  %68 = icmp sgt i32 %.val54, 0
  br i1 %68, label %.lr.ph77, label %.critedge6

.lr.ph77:                                         ; preds = %.critedge4
  %.val57 = load ptr, ptr %2, align 8
  %.not49 = icmp eq ptr %.val57, null
  br i1 %.not49, label %.critedge6, label %.lr.ph77.split

.lr.ph77.split:                                   ; preds = %.lr.ph77
  %69 = getelementptr i8, ptr %66, i64 8
  %.val58.val = load ptr, ptr %69, align 8
  %wide.trip.count = zext nneg i32 %.val54 to i64
  br label %70

70:                                               ; preds = %.lr.ph77.split, %70
  %indvars.iv90 = phi i64 [ 0, %.lr.ph77.split ], [ %indvars.iv.next91, %70 ]
  %.076 = phi i32 [ 0, %.lr.ph77.split ], [ %79, %70 ]
  %71 = getelementptr inbounds nuw i32, ptr %.val58.val, i64 %indvars.iv90
  %72 = load i32, ptr %71, align 4
  %73 = sext i32 %72 to i64
  %74 = getelementptr inbounds %struct.Gia_Obj_t_, ptr %.val57, i64 %73
  %75 = load i64, ptr %74, align 4
  %76 = trunc i64 %75 to i32
  %77 = lshr i32 %76, 30
  %78 = and i32 %77, 1
  %79 = add nuw nsw i32 %78, %.076
  %indvars.iv.next91 = add nuw nsw i64 %indvars.iv90, 1
  %exitcond.not = icmp eq i64 %indvars.iv.next91, %wide.trip.count
  br i1 %exitcond.not, label %.critedge6, label %70, !llvm.loop !94

.critedge6:                                       ; preds = %70, %.lr.ph77, %.critedge4
  %.0.lcssa = phi i32 [ 0, %.critedge4 ], [ 0, %.lr.ph77 ], [ %79, %70 ]
  %80 = load i32, ptr %20, align 8
  %81 = icmp sgt i32 %80, 0
  br i1 %81, label %.lr.ph81, label %.critedge8

.lr.ph81:                                         ; preds = %.critedge6, %82
  %indvars.iv93 = phi i64 [ %indvars.iv.next94, %82 ], [ 0, %.critedge6 ]
  %.val = load ptr, ptr %2, align 8
  %.not50 = icmp eq ptr %.val, null
  br i1 %.not50, label %.critedge8, label %82

82:                                               ; preds = %.lr.ph81
  %83 = getelementptr inbounds nuw %struct.Gia_Obj_t_, ptr %.val, i64 %indvars.iv93
  %84 = load i64, ptr %83, align 4
  %85 = and i64 %84, -1073741825
  store i64 %85, ptr %83, align 4
  %indvars.iv.next94 = add nuw nsw i64 %indvars.iv93, 1
  %86 = load i32, ptr %20, align 8
  %87 = sext i32 %86 to i64
  %88 = icmp slt i64 %indvars.iv.next94, %87
  br i1 %88, label %.lr.ph81, label %.critedge8, !llvm.loop !95

.critedge8:                                       ; preds = %.lr.ph81, %82, %.critedge6
  ret i32 %.0.lcssa
}